target datalayout = "e-m:e-p270:32:32-p271:32:32-p272:64:64-i64:64-i128:128-f80:128-n8:16:32:64-S128"
target triple = "x86_64-pc-linux-gnu"

%struct.strbuf = type { i64, i64, ptr }
%struct.oid_stat = type { %struct.stat_data, %struct.object_id, i32 }
%struct.stat_data = type { %struct.cache_time, %struct.cache_time, i32, i32, i32, i32, i32 }
%struct.cache_time = type { i32, i32 }
%struct.object_id = type { [32 x i8], i32 }
%struct.untracked_cache = type { %struct.oid_stat, %struct.oid_stat, ptr, ptr, %struct.strbuf, i32, ptr, i32, i32, i32, i32, i8 }
%struct.untracked_cache_dir = type { ptr, ptr, %struct.stat_data, i32, i32, i32, i32, i8, %struct.object_id, [0 x i8] }

@.str.33 = private unnamed_addr constant [27 x i8] c"size_t overflow: %lu + %lu\00", align 1
@.str.34 = private unnamed_addr constant [27 x i8] c"size_t overflow: %lu * %lu\00", align 1

; Function Attrs: inlinehint nounwind uwtable
define internal void @move_array(ptr noundef %0, ptr noundef %1, i64 noundef %2, i64 noundef %3) #3 {
  %5 = alloca ptr, align 8
  %6 = alloca ptr, align 8
  %7 = alloca i64, align 8
  %8 = alloca i64, align 8
  store ptr %0, ptr %5, align 8, !tbaa !106
  store ptr %1, ptr %6, align 8, !tbaa !106
  store i64 %2, ptr %7, align 8, !tbaa !19
  store i64 %3, ptr %8, align 8, !tbaa !19
  %9 = load i64, ptr %7, align 8, !tbaa !19
  %10 = icmp ne i64 %9, 0
  br i1 %10, label %11, label %17

11:                                               ; preds = %4
  %12 = load ptr, ptr %5, align 8, !tbaa !106
  %13 = load ptr, ptr %6, align 8, !tbaa !106
  %14 = load i64, ptr %8, align 8, !tbaa !19
  %15 = load i64, ptr %7, align 8, !tbaa !19
  %16 = call i64 @st_mult(i64 noundef %14, i64 noundef %15)
  call void @llvm.memmove.p0.p0.i64(ptr align 1 %12, ptr align 1 %13, i64 %16, i1 false)
  br label %17

17:                                               ; preds = %11, %4
  ret void
}

; Function Attrs: inlinehint nounwind uwtable
define internal i64 @st_mult(i64 noundef %0, i64 noundef %1) #3 {
  %3 = alloca i64, align 8
  %4 = alloca i64, align 8
  store i64 %0, ptr %3, align 8, !tbaa !19
  store i64 %1, ptr %4, align 8, !tbaa !19
  %5 = load i64, ptr %3, align 8, !tbaa !19
  %6 = icmp ne i64 %5, 0
  br i1 %6, label %7, label %15

7:                                                ; preds = %2
  %8 = load i64, ptr %4, align 8, !tbaa !19
  %9 = load i64, ptr %3, align 8, !tbaa !19
  %10 = udiv i64 -1, %9
  %11 = icmp ugt i64 %8, %10
  br i1 %11, label %12, label %15

12:                                               ; preds = %7
  %13 = load i64, ptr %3, align 8, !tbaa !19
  %14 = load i64, ptr %4, align 8, !tbaa !19
  call void (ptr, ...) @die(ptr noundef @.str.34, i64 noundef %13, i64 noundef %14) #14
  unreachable

15:                                               ; preds = %7, %2
  %16 = load i64, ptr %3, align 8, !tbaa !19
  %17 = load i64, ptr %4, align 8, !tbaa !19
  %18 = mul i64 %16, %17
  ret i64 %18
}

; Function Attrs: inlinehint nounwind uwtable
define internal i64 @st_add(i64 noundef %0, i64 noundef %1) #3 {
  %3 = alloca i64, align 8
  %4 = alloca i64, align 8
  store i64 %0, ptr %3, align 8, !tbaa !19
  store i64 %1, ptr %4, align 8, !tbaa !19
  %5 = load i64, ptr %4, align 8, !tbaa !19
  %6 = load i64, ptr %3, align 8, !tbaa !19
  %7 = sub i64 -1, %6
  %8 = icmp ugt i64 %5, %7
  br i1 %8, label %9, label %12

9:                                                ; preds = %2
  %10 = load i64, ptr %3, align 8, !tbaa !19
  %11 = load i64, ptr %4, align 8, !tbaa !19
  call void (ptr, ...) @die(ptr noundef @.str.33, i64 noundef %10, i64 noundef %11) #14
  unreachable

12:                                               ; preds = %2
  %13 = load i64, ptr %3, align 8, !tbaa !19
  %14 = load i64, ptr %4, align 8, !tbaa !19
  %15 = add i64 %13, %14
  ret i64 %15
}

; Function Attrs: nounwind uwtable
define internal ptr @lookup_untracked(ptr noundef %0, ptr noundef %1, ptr noundef %2, i32 noundef %3) #0 {
  %5 = alloca ptr, align 8
  %6 = alloca ptr, align 8
  %7 = alloca ptr, align 8
  %8 = alloca ptr, align 8
  %9 = alloca i32, align 4
  %10 = alloca i32, align 4
  %11 = alloca i32, align 4
  %12 = alloca ptr, align 8
  %13 = alloca i32, align 4
  %14 = alloca i32, align 4
  %15 = alloca i32, align 4
  %16 = alloca i64, align 8
  store ptr %0, ptr %6, align 8, !tbaa !187
  store ptr %1, ptr %7, align 8, !tbaa !71
  store ptr %2, ptr %8, align 8, !tbaa !13
  store i32 %3, ptr %9, align 4, !tbaa !16
  call void @llvm.lifetime.start.p0(i64 4, ptr %10) #12
  call void @llvm.lifetime.start.p0(i64 4, ptr %11) #12
  call void @llvm.lifetime.start.p0(i64 8, ptr %12) #12
  %17 = load ptr, ptr %7, align 8, !tbaa !71
  %18 = icmp ne ptr %17, null
  br i1 %18, label %20, label %19

19:                                               ; preds = %4
  store ptr null, ptr %5, align 8
  store i32 1, ptr %13, align 4
  br label %193

20:                                               ; preds = %4
  %21 = load i32, ptr %9, align 4, !tbaa !16
  %22 = icmp ne i32 %21, 0
  br i1 %22, label %23, label %35

23:                                               ; preds = %20
  %24 = load ptr, ptr %8, align 8, !tbaa !13
  %25 = load i32, ptr %9, align 4, !tbaa !16
  %26 = sub nsw i32 %25, 1
  %27 = sext i32 %26 to i64
  %28 = getelementptr inbounds i8, ptr %24, i64 %27
  %29 = load i8, ptr %28, align 1, !tbaa !15
  %30 = sext i8 %29 to i32
  %31 = icmp eq i32 %30, 47
  br i1 %31, label %32, label %35

32:                                               ; preds = %23
  %33 = load i32, ptr %9, align 4, !tbaa !16
  %34 = add nsw i32 %33, -1
  store i32 %34, ptr %9, align 4, !tbaa !16
  br label %35

35:                                               ; preds = %32, %23, %20
  store i32 0, ptr %10, align 4, !tbaa !16
  %36 = load ptr, ptr %7, align 8, !tbaa !71
  %37 = getelementptr inbounds nuw %struct.untracked_cache_dir, ptr %36, i32 0, i32 4
  %38 = load i32, ptr %37, align 8, !tbaa !16
  store i32 %38, ptr %11, align 4, !tbaa !16
  br label %39

39:                                               ; preds = %90, %88, %35
  %40 = load i32, ptr %11, align 4, !tbaa !16
  %41 = load i32, ptr %10, align 4, !tbaa !16
  %42 = icmp sgt i32 %40, %41
  br i1 %42, label %43, label %91

43:                                               ; preds = %39
  call void @llvm.lifetime.start.p0(i64 4, ptr %14) #12
  call void @llvm.lifetime.start.p0(i64 4, ptr %15) #12
  %44 = load i32, ptr %10, align 4, !tbaa !16
  %45 = load i32, ptr %11, align 4, !tbaa !16
  %46 = load i32, ptr %10, align 4, !tbaa !16
  %47 = sub nsw i32 %45, %46
  %48 = ashr i32 %47, 1
  %49 = add nsw i32 %44, %48
  store i32 %49, ptr %15, align 4, !tbaa !16
  %50 = load ptr, ptr %7, align 8, !tbaa !71
  %51 = getelementptr inbounds nuw %struct.untracked_cache_dir, ptr %50, i32 0, i32 0
  %52 = load ptr, ptr %51, align 8, !tbaa !246
  %53 = load i32, ptr %15, align 4, !tbaa !16
  %54 = sext i32 %53 to i64
  %55 = getelementptr inbounds ptr, ptr %52, i64 %54
  %56 = load ptr, ptr %55, align 8, !tbaa !71
  store ptr %56, ptr %12, align 8, !tbaa !71
  %57 = load ptr, ptr %8, align 8, !tbaa !13
  %58 = load ptr, ptr %12, align 8, !tbaa !71
  %59 = getelementptr inbounds nuw %struct.untracked_cache_dir, ptr %58, i32 0, i32 9
  %60 = getelementptr inbounds [0 x i8], ptr %59, i64 0, i64 0
  %61 = load i32, ptr %9, align 4, !tbaa !16
  %62 = sext i32 %61 to i64
  %63 = call i32 @strncmp(ptr noundef %57, ptr noundef %60, i64 noundef %62) #13
  store i32 %63, ptr %14, align 4, !tbaa !16
  %64 = load i32, ptr %14, align 4, !tbaa !16
  %65 = icmp ne i32 %64, 0
  br i1 %65, label %75, label %66

66:                                               ; preds = %43
  %67 = load ptr, ptr %12, align 8, !tbaa !71
  %68 = getelementptr inbounds nuw %struct.untracked_cache_dir, ptr %67, i32 0, i32 9
  %69 = getelementptr inbounds [0 x i8], ptr %68, i64 0, i64 0
  %70 = call i64 @strlen(ptr noundef %69) #13
  %71 = load i32, ptr %9, align 4, !tbaa !16
  %72 = sext i32 %71 to i64
  %73 = icmp ugt i64 %70, %72
  br i1 %73, label %74, label %75

74:                                               ; preds = %66
  store i32 -1, ptr %14, align 4, !tbaa !16
  br label %75

75:                                               ; preds = %74, %66, %43
  %76 = load i32, ptr %14, align 4, !tbaa !16
  %77 = icmp ne i32 %76, 0
  br i1 %77, label %80, label %78

78:                                               ; preds = %75
  %79 = load ptr, ptr %12, align 8, !tbaa !71
  store ptr %79, ptr %5, align 8
  store i32 1, ptr %13, align 4
  br label %88

80:                                               ; preds = %75
  %81 = load i32, ptr %14, align 4, !tbaa !16
  %82 = icmp slt i32 %81, 0
  br i1 %82, label %83, label %85

83:                                               ; preds = %80
  %84 = load i32, ptr %15, align 4, !tbaa !16
  store i32 %84, ptr %11, align 4, !tbaa !16
  store i32 2, ptr %13, align 4
  br label %88, !llvm.loop !288

85:                                               ; preds = %80
  %86 = load i32, ptr %15, align 4, !tbaa !16
  %87 = add nsw i32 %86, 1
  store i32 %87, ptr %10, align 4, !tbaa !16
  store i32 0, ptr %13, align 4
  br label %88

88:                                               ; preds = %85, %83, %78
  call void @llvm.lifetime.end.p0(i64 4, ptr %15) #12
  call void @llvm.lifetime.end.p0(i64 4, ptr %14) #12
  %89 = load i32, ptr %13, align 4
  switch i32 %89, label %193 [
    i32 0, label %90
    i32 2, label %39
  ]

90:                                               ; preds = %88
  br label %39, !llvm.loop !288

91:                                               ; preds = %39
  %92 = load ptr, ptr %6, align 8, !tbaa !187
  %93 = getelementptr inbounds nuw %struct.untracked_cache, ptr %92, i32 0, i32 7
  %94 = load i32, ptr %93, align 8, !tbaa !199
  %95 = add nsw i32 %94, 1
  store i32 %95, ptr %93, align 8, !tbaa !199
  br label %96

96:                                               ; preds = %91
  call void @llvm.lifetime.start.p0(i64 8, ptr %16) #12
  %97 = load i32, ptr %9, align 4, !tbaa !16
  %98 = sext i32 %97 to i64
  store i64 %98, ptr %16, align 8, !tbaa !19
  %99 = load i64, ptr %16, align 8, !tbaa !19
  %100 = call i64 @st_add(i64 noundef 112, i64 noundef %99)
  %101 = call i64 @st_add(i64 noundef %100, i64 noundef 1)
  %102 = call ptr @xcalloc(i64 noundef 1, i64 noundef %101)
  store ptr %102, ptr %12, align 8, !tbaa !71
  %103 = load ptr, ptr %12, align 8, !tbaa !71
  %104 = getelementptr inbounds nuw %struct.untracked_cache_dir, ptr %103, i32 0, i32 9
  %105 = getelementptr inbounds [0 x i8], ptr %104, i64 0, i64 0
  %106 = load ptr, ptr %8, align 8, !tbaa !13
  %107 = load i64, ptr %16, align 8, !tbaa !19
  call void @llvm.memcpy.p0.p0.i64(ptr align 4 %105, ptr align 1 %106, i64 %107, i1 false)
  call void @llvm.lifetime.end.p0(i64 8, ptr %16) #12
  br label %108

108:                                              ; preds = %96
  br label %109

109:                                              ; preds = %108
  br label %110

110:                                              ; preds = %109
  %111 = load ptr, ptr %7, align 8, !tbaa !71
  %112 = getelementptr inbounds nuw %struct.untracked_cache_dir, ptr %111, i32 0, i32 4
  %113 = load i32, ptr %112, align 8, !tbaa !16
  %114 = add i32 %113, 1
  %115 = load ptr, ptr %7, align 8, !tbaa !71
  %116 = getelementptr inbounds nuw %struct.untracked_cache_dir, ptr %115, i32 0, i32 5
  %117 = load i32, ptr %116, align 4, !tbaa !16
  %118 = icmp ugt i32 %114, %117
  br i1 %118, label %119, label %159

119:                                              ; preds = %110
  %120 = load ptr, ptr %7, align 8, !tbaa !71
  %121 = getelementptr inbounds nuw %struct.untracked_cache_dir, ptr %120, i32 0, i32 5
  %122 = load i32, ptr %121, align 4, !tbaa !16
  %123 = add i32 %122, 16
  %124 = mul i32 %123, 3
  %125 = udiv i32 %124, 2
  %126 = load ptr, ptr %7, align 8, !tbaa !71
  %127 = getelementptr inbounds nuw %struct.untracked_cache_dir, ptr %126, i32 0, i32 4
  %128 = load i32, ptr %127, align 8, !tbaa !16
  %129 = add i32 %128, 1
  %130 = icmp ult i32 %125, %129
  br i1 %130, label %131, label %138

131:                                              ; preds = %119
  %132 = load ptr, ptr %7, align 8, !tbaa !71
  %133 = getelementptr inbounds nuw %struct.untracked_cache_dir, ptr %132, i32 0, i32 4
  %134 = load i32, ptr %133, align 8, !tbaa !16
  %135 = add i32 %134, 1
  %136 = load ptr, ptr %7, align 8, !tbaa !71
  %137 = getelementptr inbounds nuw %struct.untracked_cache_dir, ptr %136, i32 0, i32 5
  store i32 %135, ptr %137, align 4, !tbaa !16
  br label %147

138:                                              ; preds = %119
  %139 = load ptr, ptr %7, align 8, !tbaa !71
  %140 = getelementptr inbounds nuw %struct.untracked_cache_dir, ptr %139, i32 0, i32 5
  %141 = load i32, ptr %140, align 4, !tbaa !16
  %142 = add i32 %141, 16
  %143 = mul i32 %142, 3
  %144 = udiv i32 %143, 2
  %145 = load ptr, ptr %7, align 8, !tbaa !71
  %146 = getelementptr inbounds nuw %struct.untracked_cache_dir, ptr %145, i32 0, i32 5
  store i32 %144, ptr %146, align 4, !tbaa !16
  br label %147

147:                                              ; preds = %138, %131
  %148 = load ptr, ptr %7, align 8, !tbaa !71
  %149 = getelementptr inbounds nuw %struct.untracked_cache_dir, ptr %148, i32 0, i32 0
  %150 = load ptr, ptr %149, align 8, !tbaa !246
  %151 = load ptr, ptr %7, align 8, !tbaa !71
  %152 = getelementptr inbounds nuw %struct.untracked_cache_dir, ptr %151, i32 0, i32 5
  %153 = load i32, ptr %152, align 4, !tbaa !16
  %154 = zext i32 %153 to i64
  %155 = call i64 @st_mult(i64 noundef 8, i64 noundef %154)
  %156 = call ptr @xrealloc(ptr noundef %150, i64 noundef %155)
  %157 = load ptr, ptr %7, align 8, !tbaa !71
  %158 = getelementptr inbounds nuw %struct.untracked_cache_dir, ptr %157, i32 0, i32 0
  store ptr %156, ptr %158, align 8, !tbaa !246
  br label %159

159:                                              ; preds = %147, %110
  br label %160

160:                                              ; preds = %159
  br label %161

161:                                              ; preds = %160
  %162 = load ptr, ptr %7, align 8, !tbaa !71
  %163 = getelementptr inbounds nuw %struct.untracked_cache_dir, ptr %162, i32 0, i32 0
  %164 = load ptr, ptr %163, align 8, !tbaa !246
  %165 = load i32, ptr %10, align 4, !tbaa !16
  %166 = sext i32 %165 to i64
  %167 = getelementptr inbounds ptr, ptr %164, i64 %166
  %168 = getelementptr inbounds ptr, ptr %167, i64 1
  %169 = load ptr, ptr %7, align 8, !tbaa !71
  %170 = getelementptr inbounds nuw %struct.untracked_cache_dir, ptr %169, i32 0, i32 0
  %171 = load ptr, ptr %170, align 8, !tbaa !246
  %172 = load i32, ptr %10, align 4, !tbaa !16
  %173 = sext i32 %172 to i64
  %174 = getelementptr inbounds ptr, ptr %171, i64 %173
  %175 = load ptr, ptr %7, align 8, !tbaa !71
  %176 = getelementptr inbounds nuw %struct.untracked_cache_dir, ptr %175, i32 0, i32 4
  %177 = load i32, ptr %176, align 8, !tbaa !16
  %178 = load i32, ptr %10, align 4, !tbaa !16
  %179 = sub i32 %177, %178
  %180 = zext i32 %179 to i64
  call void @move_array(ptr noundef %168, ptr noundef %174, i64 noundef %180, i64 noundef 8)
  %181 = load ptr, ptr %7, align 8, !tbaa !71
  %182 = getelementptr inbounds nuw %struct.untracked_cache_dir, ptr %181, i32 0, i32 4
  %183 = load i32, ptr %182, align 8, !tbaa !16
  %184 = add i32 %183, 1
  store i32 %184, ptr %182, align 8, !tbaa !16
  %185 = load ptr, ptr %12, align 8, !tbaa !71
  %186 = load ptr, ptr %7, align 8, !tbaa !71
  %187 = getelementptr inbounds nuw %struct.untracked_cache_dir, ptr %186, i32 0, i32 0
  %188 = load ptr, ptr %187, align 8, !tbaa !246
  %189 = load i32, ptr %10, align 4, !tbaa !16
  %190 = sext i32 %189 to i64
  %191 = getelementptr inbounds ptr, ptr %188, i64 %190
  store ptr %185, ptr %191, align 8, !tbaa !71
  %192 = load ptr, ptr %12, align 8, !tbaa !71
  store ptr %192, ptr %5, align 8
  store i32 1, ptr %13, align 4
  br label %193

193:                                              ; preds = %161, %88, %19
  call void @llvm.lifetime.end.p0(i64 8, ptr %12) #12
  call void @llvm.lifetime.end.p0(i64 4, ptr %11) #12
  call void @llvm.lifetime.end.p0(i64 4, ptr %10) #12
  %194 = load ptr, ptr %5, align 8
  ret ptr %194
}