; Function Attrs: nounwind uwtable
define internal fastcc ptr @lookup_untracked(ptr noundef captures(none) %0, ptr noundef %1, ptr noundef readonly captures(none) %2, i32 noundef %3) unnamed_addr #0 {
  %.not = icmp eq ptr %1, null
  br i1 %.not, label %.thread78, label %5

5:                                                ; preds = %4
  %.not68 = icmp eq i32 %3, 0
  br i1 %.not68, label %14, label %6

6:                                                ; preds = %5
  %7 = sext i32 %3 to i64
  %8 = getelementptr i8, ptr %2, i64 %7
  %9 = getelementptr i8, ptr %8, i64 -1
  %10 = load i8, ptr %9, align 1, !tbaa !4
  %11 = icmp eq i8 %10, 47
  %12 = sext i1 %11 to i32
  %spec.select = add nsw i32 %3, %12
  %13 = sext i32 %spec.select to i64
  br label %14

14:                                               ; preds = %6, %5
  %.053 = phi i64 [ 0, %5 ], [ %13, %6 ]
  %15 = getelementptr inbounds nuw i8, ptr %1, i64 56
  %16 = load i32, ptr %15, align 8, !tbaa !10
  %17 = icmp sgt i32 %16, 0
  br i1 %17, label %.lr.ph, label %._crit_edge

.lr.ph:                                           ; preds = %14
  %18 = load ptr, ptr %1, align 8, !tbaa !175
  br label %19

19:                                               ; preds = %.lr.ph, %.thread76
  %.05688 = phi i32 [ %16, %.lr.ph ], [ %.157, %.thread76 ]
  %.05887 = phi i32 [ 0, %.lr.ph ], [ %.159, %.thread76 ]
  %20 = sub nsw i32 %.05688, %.05887
  %21 = ashr i32 %20, 1
  %22 = add nsw i32 %21, %.05887
  %23 = sext i32 %22 to i64
  %24 = getelementptr inbounds ptr, ptr %18, i64 %23
  %25 = load ptr, ptr %24, align 8, !tbaa !158
  %26 = getelementptr inbounds nuw i8, ptr %25, i64 108
  %27 = tail call i32 @strncmp(ptr noundef %2, ptr noundef nonnull %26, i64 noundef %.053) #28
  %.not69 = icmp eq i32 %27, 0
  br i1 %.not69, label %28, label %31

28:                                               ; preds = %19
  %29 = tail call i64 @strlen(ptr noundef nonnull dereferenceable(1) %26) #28
  %30 = icmp ugt i64 %29, %.053
  br i1 %30, label %.thread76, label %.thread78

31:                                               ; preds = %19
  %32 = icmp slt i32 %27, 0
  %33 = add nsw i32 %22, 1
  %spec.select84 = select i1 %32, i32 %.05887, i32 %33
  %spec.select85 = select i1 %32, i32 %22, i32 %.05688
  br label %.thread76, !llvm.loop !256

.thread76:                                        ; preds = %31, %28
  %.159 = phi i32 [ %.05887, %28 ], [ %spec.select84, %31 ]
  %.157 = phi i32 [ %22, %28 ], [ %spec.select85, %31 ]
  %34 = icmp sgt i32 %.157, %.159
  br i1 %34, label %19, label %._crit_edge

._crit_edge:                                      ; preds = %.thread76, %14
  %.058.lcssa = phi i32 [ 0, %14 ], [ %.159, %.thread76 ]
  %35 = getelementptr inbounds nuw i8, ptr %0, i64 208
  %36 = load i32, ptr %35, align 8, !tbaa !80
  %37 = add nsw i32 %36, 1
  store i32 %37, ptr %35, align 8, !tbaa !80
  %38 = icmp ugt i64 %.053, -113
  br i1 %38, label %39, label %st_add.exit

39:                                               ; preds = %._crit_edge
  tail call void (ptr, ...) @die(ptr noundef nonnull @.str.33, i64 noundef 112, i64 noundef %.053) #29
  unreachable

st_add.exit:                                      ; preds = %._crit_edge
  %40 = icmp eq i64 %.053, -113
  br i1 %40, label %41, label %st_add.exit72

41:                                               ; preds = %st_add.exit
  tail call void (ptr, ...) @die(ptr noundef nonnull @.str.33, i64 noundef -1, i64 noundef 1) #29
  unreachable

st_add.exit72:                                    ; preds = %st_add.exit
  %42 = add nuw nsw i64 %.053, 113
  %43 = tail call ptr @xcalloc(i64 noundef 1, i64 noundef %42) #27
  %44 = getelementptr inbounds nuw i8, ptr %43, i64 108
  tail call void @llvm.memcpy.p0.p0.i64(ptr nonnull align 4 %44, ptr align 1 %2, i64 %.053, i1 false)
  %45 = load i32, ptr %15, align 8, !tbaa !10
  %46 = add i32 %45, 1
  %47 = getelementptr inbounds nuw i8, ptr %1, i64 60
  %48 = load i32, ptr %47, align 4, !tbaa !10
  %49 = icmp ugt i32 %46, %48
  %.pre92.pre = load ptr, ptr %1, align 8, !tbaa !175
  br i1 %49, label %st_mult.exit, label %56

st_mult.exit:                                     ; preds = %st_add.exit72
  %50 = mul i32 %48, 3
  %51 = add i32 %50, 48
  %52 = lshr i32 %51, 1
  %. = tail call i32 @llvm.umax.i32(i32 %52, i32 %46)
  store i32 %., ptr %47, align 4, !tbaa !10
  %53 = zext i32 %. to i64
  %54 = shl nuw nsw i64 %53, 3
  %55 = tail call ptr @xrealloc(ptr noundef %.pre92.pre, i64 noundef %54) #27
  store ptr %55, ptr %1, align 8, !tbaa !175
  %.pre = load i32, ptr %15, align 8, !tbaa !10
  br label %56

56:                                               ; preds = %st_mult.exit, %st_add.exit72
  %.pre92 = phi ptr [ %55, %st_mult.exit ], [ %.pre92.pre, %st_add.exit72 ]
  %57 = phi i32 [ %.pre, %st_mult.exit ], [ %45, %st_add.exit72 ]
  %58 = sext i32 %.058.lcssa to i64
  %.not.i = icmp eq i32 %57, %.058.lcssa
  br i1 %.not.i, label %move_array.exit, label %st_mult.exit.i

st_mult.exit.i:                                   ; preds = %56
  %59 = sub i32 %57, %.058.lcssa
  %60 = zext i32 %59 to i64
  %61 = getelementptr inbounds ptr, ptr %.pre92, i64 %58
  %62 = getelementptr inbounds nuw i8, ptr %61, i64 8
  %63 = shl nuw nsw i64 %60, 3
  tail call void @llvm.memmove.p0.p0.i64(ptr nonnull align 1 %62, ptr readonly align 1 %61, i64 %63, i1 false)
  %.pre90 = load i32, ptr %15, align 8, !tbaa !10
  %.pre91 = load ptr, ptr %1, align 8, !tbaa !175
  br label %move_array.exit

move_array.exit:                                  ; preds = %56, %st_mult.exit.i
  %64 = phi ptr [ %.pre92, %56 ], [ %.pre91, %st_mult.exit.i ]
  %65 = phi i32 [ %.058.lcssa, %56 ], [ %.pre90, %st_mult.exit.i ]
  %66 = add i32 %65, 1
  store i32 %66, ptr %15, align 8, !tbaa !10
  %67 = getelementptr inbounds ptr, ptr %64, i64 %58
  store ptr %43, ptr %67, align 8, !tbaa !158
  br label %.thread78

.thread78:                                        ; preds = %28, %4, %move_array.exit
  %.0 = phi ptr [ %43, %move_array.exit ], [ null, %4 ], [ %25, %28 ]
  ret ptr %.0
}